target datalayout = "e-m:e-p270:32:32-p271:32:32-p272:64:64-i64:64-i128:128-f80:128-n8:16:32:64-S128"
target triple = "x86_64-pc-linux-gnu"

; Function Attrs: nounwind uwtable
define zeroext i1 @h5tools_is_zero(ptr noundef %0, i64 noundef %1) #0 {
  %3 = alloca i1, align 1
  %4 = alloca ptr, align 8
  %5 = alloca i64, align 8
  %6 = alloca ptr, align 8
  %7 = alloca i32, align 4
  store ptr %0, ptr %4, align 8, !tbaa !12
  store i64 %1, ptr %5, align 8, !tbaa !7
  call void @llvm.lifetime.start.p0(i64 8, ptr %6) #10
  %8 = load ptr, ptr %4, align 8, !tbaa !12
  store ptr %8, ptr %6, align 8, !tbaa !13
  br label %9

9:                                                ; preds = %20, %2
  %10 = load i64, ptr %5, align 8, !tbaa !7
  %11 = add i64 %10, -1
  store i64 %11, ptr %5, align 8, !tbaa !7
  %12 = icmp ugt i64 %10, 0
  br i1 %12, label %13, label %21

13:                                               ; preds = %9
  %14 = load ptr, ptr %6, align 8, !tbaa !13
  %15 = load i64, ptr %5, align 8, !tbaa !7
  %16 = getelementptr inbounds nuw i8, ptr %14, i64 %15
  %17 = load i8, ptr %16, align 1, !tbaa !19
  %18 = icmp ne i8 %17, 0
  br i1 %18, label %19, label %20

19:                                               ; preds = %13
  store i1 false, ptr %3, align 1
  store i32 1, ptr %7, align 4
  br label %22

20:                                               ; preds = %13
  br label %9, !llvm.loop !95

21:                                               ; preds = %9
  store i1 true, ptr %3, align 1
  store i32 1, ptr %7, align 4
  br label %22

22:                                               ; preds = %21, %19
  call void @llvm.lifetime.end.p0(i64 8, ptr %6) #10
  %23 = load i1, ptr %3, align 1
  ret i1 %23
}