; Function Attrs: nofree norecurse nosync nounwind memory(argmem: read) uwtable
define noundef zeroext i1 @h5tools_is_zero(ptr noundef readonly captures(none) %0, i64 noundef %1) local_unnamed_addr #11 {
  br label %3

3:                                                ; preds = %4, %2
  %.04 = phi i64 [ %1, %2 ], [ %5, %4 ]
  %.not = icmp eq i64 %.04, 0
  br i1 %.not, label %8, label %4

4:                                                ; preds = %3
  %5 = add i64 %.04, -1
  %6 = getelementptr inbounds nuw i8, ptr %0, i64 %5
  %7 = load i8, ptr %6, align 1, !tbaa !15
  %.not5 = icmp eq i8 %7, 0
  br i1 %.not5, label %3, label %8, !llvm.loop !75

8:                                                ; preds = %3, %4
  ret i1 %.not
}